target datalayout = "e-m:e-p270:32:32-p271:32:32-p272:64:64-i64:64-i128:128-f80:128-n8:16:32:64-S128"
target triple = "x86_64-pc-linux-gnu"

%struct.ec_group_st = type { ptr, ptr, %struct.bignum_st, %struct.bignum_st, i32, ptr, %struct.bignum_st, %struct.bignum_st, %struct.bignum_st, i32, ptr, %struct.bignum_st }
%struct.bignum_st = type { ptr, i32, i32, i32, i32 }
%struct.ec_point_st = type { ptr, %struct.bignum_st, %struct.bignum_st, %struct.bignum_st }

@.str = private unnamed_addr constant [118 x i8] c"generated/home/dtcxzyw/WorkSpace/Projects/compilers/llvm-opt-benchmark/bench/libquic/libquic/boringssl/crypto/ec/ec.c\00", align 1

; Function Attrs: nounwind uwtable
define hidden i32 @EC_POINT_is_on_curve(ptr noundef %0, ptr noundef %1, ptr noundef %2) #1 {
  %4 = alloca i32, align 4
  %5 = alloca ptr, align 8
  %6 = alloca ptr, align 8
  %7 = alloca ptr, align 8
  store ptr %0, ptr %5, align 8, !tbaa !13
  store ptr %1, ptr %6, align 8, !tbaa !29
  store ptr %2, ptr %7, align 8, !tbaa !24
  %8 = load ptr, ptr %5, align 8, !tbaa !13
  %9 = getelementptr inbounds nuw %struct.ec_group_st, ptr %8, i32 0, i32 0
  %10 = load ptr, ptr %9, align 8, !tbaa !15
  %11 = load ptr, ptr %6, align 8, !tbaa !29
  %12 = getelementptr inbounds nuw %struct.ec_point_st, ptr %11, i32 0, i32 0
  %13 = load ptr, ptr %12, align 8, !tbaa !31
  %14 = icmp ne ptr %10, %13
  br i1 %14, label %15, label %16

15:                                               ; preds = %3
  call void @ERR_put_error(i32 noundef 15, i32 noundef 0, i32 noundef 106, ptr noundef @.str, i32 noundef 773)
  store i32 0, ptr %4, align 4
  br label %21

16:                                               ; preds = %3
  %17 = load ptr, ptr %5, align 8, !tbaa !13
  %18 = load ptr, ptr %6, align 8, !tbaa !29
  %19 = load ptr, ptr %7, align 8, !tbaa !24
  %20 = call i32 @ec_GFp_simple_is_on_curve(ptr noundef %17, ptr noundef %18, ptr noundef %19)
  store i32 %20, ptr %4, align 4
  br label %21

21:                                               ; preds = %16, %15
  %22 = load i32, ptr %4, align 4
  ret i32 %22
}

; Function Attrs: nounwind uwtable
define hidden i32 @EC_POINT_set_affine_coordinates_GFp(ptr noundef %0, ptr noundef %1, ptr noundef %2, ptr noundef %3, ptr noundef %4) #1 {
  %6 = alloca i32, align 4
  %7 = alloca ptr, align 8
  %8 = alloca ptr, align 8
  %9 = alloca ptr, align 8
  %10 = alloca ptr, align 8
  %11 = alloca ptr, align 8
  store ptr %0, ptr %7, align 8, !tbaa !13
  store ptr %1, ptr %8, align 8, !tbaa !29
  store ptr %2, ptr %9, align 8, !tbaa !22
  store ptr %3, ptr %10, align 8, !tbaa !22
  store ptr %4, ptr %11, align 8, !tbaa !24
  %12 = load ptr, ptr %7, align 8, !tbaa !13
  %13 = getelementptr inbounds nuw %struct.ec_group_st, ptr %12, i32 0, i32 0
  %14 = load ptr, ptr %13, align 8, !tbaa !15
  %15 = load ptr, ptr %8, align 8, !tbaa !29
  %16 = getelementptr inbounds nuw %struct.ec_point_st, ptr %15, i32 0, i32 0
  %17 = load ptr, ptr %16, align 8, !tbaa !31
  %18 = icmp ne ptr %14, %17
  br i1 %18, label %19, label %20

19:                                               ; preds = %5
  call void @ERR_put_error(i32 noundef 15, i32 noundef 0, i32 noundef 106, ptr noundef @.str, i32 noundef 827)
  store i32 0, ptr %6, align 4
  br label %37

20:                                               ; preds = %5
  %21 = load ptr, ptr %7, align 8, !tbaa !13
  %22 = load ptr, ptr %8, align 8, !tbaa !29
  %23 = load ptr, ptr %9, align 8, !tbaa !22
  %24 = load ptr, ptr %10, align 8, !tbaa !22
  %25 = load ptr, ptr %11, align 8, !tbaa !24
  %26 = call i32 @ec_GFp_simple_point_set_affine_coordinates(ptr noundef %21, ptr noundef %22, ptr noundef %23, ptr noundef %24, ptr noundef %25)
  %27 = icmp ne i32 %26, 0
  br i1 %27, label %29, label %28

28:                                               ; preds = %20
  store i32 0, ptr %6, align 4
  br label %37

29:                                               ; preds = %20
  %30 = load ptr, ptr %7, align 8, !tbaa !13
  %31 = load ptr, ptr %8, align 8, !tbaa !29
  %32 = load ptr, ptr %11, align 8, !tbaa !24
  %33 = call i32 @EC_POINT_is_on_curve(ptr noundef %30, ptr noundef %31, ptr noundef %32)
  %34 = icmp ne i32 %33, 0
  br i1 %34, label %36, label %35

35:                                               ; preds = %29
  call void @ERR_put_error(i32 noundef 15, i32 noundef 0, i32 noundef 120, ptr noundef @.str, i32 noundef 835)
  store i32 0, ptr %6, align 4
  br label %37

36:                                               ; preds = %29
  store i32 1, ptr %6, align 4
  br label %37

37:                                               ; preds = %36, %35, %28, %19
  %38 = load i32, ptr %6, align 4
  ret i32 %38
}