; Function Attrs: nounwind uwtable
define hidden range(i32 0, 2) i32 @EC_POINT_set_affine_coordinates_GFp(ptr noundef %0, ptr noundef %1, ptr noundef %2, ptr noundef %3, ptr noundef %4) local_unnamed_addr #1 {
  %6 = load ptr, ptr %0, align 8, !tbaa !11
  %7 = load ptr, ptr %1, align 8, !tbaa !23
  %.not = icmp eq ptr %6, %7
  br i1 %.not, label %9, label %8

8:                                                ; preds = %5
  tail call void @ERR_put_error(i32 noundef 15, i32 noundef 0, i32 noundef 106, ptr noundef nonnull @.str, i32 noundef 827) #11
  br label %16

9:                                                ; preds = %5
  %10 = tail call i32 @ec_GFp_simple_point_set_affine_coordinates(ptr noundef nonnull %0, ptr noundef nonnull %1, ptr noundef %2, ptr noundef %3, ptr noundef %4) #11
  %.not10 = icmp eq i32 %10, 0
  br i1 %.not10, label %16, label %11

11:                                               ; preds = %9
  %12 = load ptr, ptr %0, align 8, !tbaa !11
  %13 = load ptr, ptr %1, align 8, !tbaa !23
  %.not.i = icmp eq ptr %12, %13
  br i1 %.not.i, label %EC_POINT_is_on_curve.exit, label %EC_POINT_is_on_curve.exit.thread

EC_POINT_is_on_curve.exit.thread:                 ; preds = %11
  tail call void @ERR_put_error(i32 noundef 15, i32 noundef 0, i32 noundef 106, ptr noundef nonnull @.str, i32 noundef 773) #11
  br label %15

EC_POINT_is_on_curve.exit:                        ; preds = %11
  %14 = tail call i32 @ec_GFp_simple_is_on_curve(ptr noundef nonnull %0, ptr noundef nonnull %1, ptr noundef %4) #11
  %.not11 = icmp eq i32 %14, 0
  br i1 %.not11, label %15, label %16

15:                                               ; preds = %EC_POINT_is_on_curve.exit.thread, %EC_POINT_is_on_curve.exit
  tail call void @ERR_put_error(i32 noundef 15, i32 noundef 0, i32 noundef 120, ptr noundef nonnull @.str, i32 noundef 835) #11
  br label %16

16:                                               ; preds = %EC_POINT_is_on_curve.exit, %9, %15, %8
  %.0 = phi i32 [ 0, %8 ], [ 0, %15 ], [ 0, %9 ], [ 1, %EC_POINT_is_on_curve.exit ]
  ret i32 %.0
}